; Function Attrs: nounwind uwtable
define dso_local noundef i64 @bpchar_sortsupport(ptr noundef readonly captures(none) %0) local_unnamed_addr #0 {
  %2 = getelementptr inbounds nuw i8, ptr %0, i64 32
  %3 = load i64, ptr %2, align 8
  %4 = inttoptr i64 %3 to ptr
  %5 = getelementptr inbounds nuw i8, ptr %4, i64 8
  %6 = load i32, ptr %5, align 8
  %7 = load ptr, ptr %4, align 8
  %8 = load ptr, ptr @CurrentMemoryContext, align 8
  store ptr %7, ptr @CurrentMemoryContext, align 8
  tail call void @varstr_sortsupport(ptr noundef nonnull %4, i32 noundef 1042, i32 noundef %6) #13
  store ptr %8, ptr @CurrentMemoryContext, align 8
  ret i64 0
}